target datalayout = "e-m:e-p270:32:32-p271:32:32-p272:64:64-i64:64-i128:128-f80:128-n8:16:32:64-S128"
target triple = "x86_64-pc-linux-gnu"

%struct.AVFilterContext = type { ptr, ptr, ptr, ptr, ptr, i32, ptr, ptr, i32, ptr, ptr, i32, i32, ptr, ptr, ptr, ptr, i32, ptr, i32, i32 }
%struct.DeflickerContext = type { ptr, i32, i32, i32, i32, i32, i32, [4 x i32], [4 x i32], ptr, [129 x float], [129 x float], %struct.FFBufQueue, i32, ptr, ptr, ptr }
%struct.FFBufQueue = type { [129 x ptr], i16, i16 }
%struct.AVChannelLayout = type { i32, i32, %union.anon.1, ptr }
%union.anon.1 = type { i64 }
%struct.AVRational = type { i32, i32 }
%struct.AVFrame = type { [8 x ptr], [8 x i32], ptr, i32, i32, i32, i32, i32, %struct.AVRational, i64, i64, %struct.AVRational, i32, ptr, i32, i32, [8 x ptr], ptr, i32, ptr, i32, i32, i32, i32, i32, i32, i32, i64, ptr, i32, ptr, ptr, i64, i64, i64, i64, ptr, %struct.AVChannelLayout, i64 }

; Function Attrs: nounwind uwtable
define internal float @calc_avgy8(ptr noundef %0, ptr noundef %1) #1 {
  %3 = alloca ptr, align 8
  %4 = alloca ptr, align 8
  %5 = alloca ptr, align 8
  %6 = alloca ptr, align 8
  %7 = alloca i64, align 8
  %8 = alloca i32, align 4
  %9 = alloca i32, align 4
  store ptr %0, ptr %3, align 8, !tbaa !4
  store ptr %1, ptr %4, align 8, !tbaa !26
  call void @llvm.lifetime.start.p0(i64 8, ptr %5) #13
  %10 = load ptr, ptr %3, align 8, !tbaa !4
  %11 = getelementptr inbounds nuw %struct.AVFilterContext, ptr %10, i32 0, i32 9
  %12 = load ptr, ptr %11, align 8, !tbaa !9
  store ptr %12, ptr %5, align 8, !tbaa !22
  call void @llvm.lifetime.start.p0(i64 8, ptr %6) #13
  %13 = load ptr, ptr %4, align 8, !tbaa !26
  %14 = getelementptr inbounds nuw %struct.AVFrame, ptr %13, i32 0, i32 0
  %15 = getelementptr inbounds [8 x ptr], ptr %14, i64 0, i64 0
  %16 = load ptr, ptr %15, align 8, !tbaa !53
  store ptr %16, ptr %6, align 8, !tbaa !53
  call void @llvm.lifetime.start.p0(i64 8, ptr %7) #13
  store i64 0, ptr %7, align 8, !tbaa !78
  call void @llvm.lifetime.start.p0(i64 4, ptr %8) #13
  call void @llvm.lifetime.start.p0(i64 4, ptr %9) #13
  %17 = load ptr, ptr %5, align 8, !tbaa !22
  %18 = getelementptr inbounds nuw %struct.DeflickerContext, ptr %17, i32 0, i32 9
  %19 = load ptr, ptr %18, align 8, !tbaa !71
  %20 = load ptr, ptr %5, align 8, !tbaa !22
  %21 = getelementptr inbounds nuw %struct.DeflickerContext, ptr %20, i32 0, i32 5
  %22 = load i32, ptr %21, align 8, !tbaa !56
  %23 = shl i32 1, %22
  %24 = sext i32 %23 to i64
  %25 = mul i64 %24, 8
  call void @llvm.memset.p0.i64(ptr align 8 %19, i8 0, i64 %25, i1 false)
  store i32 0, ptr %8, align 4, !tbaa !54
  br label %26

26:                                               ; preds = %65, %2
  %27 = load i32, ptr %8, align 4, !tbaa !54
  %28 = load ptr, ptr %5, align 8, !tbaa !22
  %29 = getelementptr inbounds nuw %struct.DeflickerContext, ptr %28, i32 0, i32 8
  %30 = getelementptr inbounds [4 x i32], ptr %29, i64 0, i64 0
  %31 = load i32, ptr %30, align 8, !tbaa !54
  %32 = icmp slt i32 %27, %31
  br i1 %32, label %33, label %68

33:                                               ; preds = %26
  store i32 0, ptr %9, align 4, !tbaa !54
  br label %34

34:                                               ; preds = %54, %33
  %35 = load i32, ptr %9, align 4, !tbaa !54
  %36 = load ptr, ptr %5, align 8, !tbaa !22
  %37 = getelementptr inbounds nuw %struct.DeflickerContext, ptr %36, i32 0, i32 7
  %38 = getelementptr inbounds [4 x i32], ptr %37, i64 0, i64 0
  %39 = load i32, ptr %38, align 8, !tbaa !54
  %40 = icmp slt i32 %35, %39
  br i1 %40, label %41, label %57

41:                                               ; preds = %34
  %42 = load ptr, ptr %5, align 8, !tbaa !22
  %43 = getelementptr inbounds nuw %struct.DeflickerContext, ptr %42, i32 0, i32 9
  %44 = load ptr, ptr %43, align 8, !tbaa !71
  %45 = load ptr, ptr %6, align 8, !tbaa !53
  %46 = load i32, ptr %9, align 4, !tbaa !54
  %47 = sext i32 %46 to i64
  %48 = getelementptr inbounds i8, ptr %45, i64 %47
  %49 = load i8, ptr %48, align 1, !tbaa !79
  %50 = zext i8 %49 to i64
  %51 = getelementptr inbounds nuw i64, ptr %44, i64 %50
  %52 = load i64, ptr %51, align 8, !tbaa !78
  %53 = add i64 %52, 1
  store i64 %53, ptr %51, align 8, !tbaa !78
  br label %54

54:                                               ; preds = %41
  %55 = load i32, ptr %9, align 4, !tbaa !54
  %56 = add nsw i32 %55, 1
  store i32 %56, ptr %9, align 4, !tbaa !54
  br label %34, !llvm.loop !82

57:                                               ; preds = %34
  %58 = load ptr, ptr %4, align 8, !tbaa !26
  %59 = getelementptr inbounds nuw %struct.AVFrame, ptr %58, i32 0, i32 1
  %60 = getelementptr inbounds [8 x i32], ptr %59, i64 0, i64 0
  %61 = load i32, ptr %60, align 8, !tbaa !54
  %62 = load ptr, ptr %6, align 8, !tbaa !53
  %63 = sext i32 %61 to i64
  %64 = getelementptr inbounds i8, ptr %62, i64 %63
  store ptr %64, ptr %6, align 8, !tbaa !53
  br label %65

65:                                               ; preds = %57
  %66 = load i32, ptr %8, align 4, !tbaa !54
  %67 = add nsw i32 %66, 1
  store i32 %67, ptr %8, align 4, !tbaa !54
  br label %26, !llvm.loop !83

68:                                               ; preds = %26
  store i32 0, ptr %8, align 4, !tbaa !54
  br label %69

69:                                               ; preds = %89, %68
  %70 = load i32, ptr %8, align 4, !tbaa !54
  %71 = load ptr, ptr %5, align 8, !tbaa !22
  %72 = getelementptr inbounds nuw %struct.DeflickerContext, ptr %71, i32 0, i32 5
  %73 = load i32, ptr %72, align 8, !tbaa !56
  %74 = shl i32 1, %73
  %75 = icmp slt i32 %70, %74
  br i1 %75, label %76, label %92

76:                                               ; preds = %69
  %77 = load ptr, ptr %5, align 8, !tbaa !22
  %78 = getelementptr inbounds nuw %struct.DeflickerContext, ptr %77, i32 0, i32 9
  %79 = load ptr, ptr %78, align 8, !tbaa !71
  %80 = load i32, ptr %8, align 4, !tbaa !54
  %81 = sext i32 %80 to i64
  %82 = getelementptr inbounds i64, ptr %79, i64 %81
  %83 = load i64, ptr %82, align 8, !tbaa !78
  %84 = load i32, ptr %8, align 4, !tbaa !54
  %85 = sext i32 %84 to i64
  %86 = mul i64 %83, %85
  %87 = load i64, ptr %7, align 8, !tbaa !78
  %88 = add i64 %87, %86
  store i64 %88, ptr %7, align 8, !tbaa !78
  br label %89

89:                                               ; preds = %76
  %90 = load i32, ptr %8, align 4, !tbaa !54
  %91 = add nsw i32 %90, 1
  store i32 %91, ptr %8, align 4, !tbaa !54
  br label %69, !llvm.loop !84

92:                                               ; preds = %69
  %93 = load i64, ptr %7, align 8, !tbaa !78
  %94 = sitofp i64 %93 to float
  %95 = fmul nsz float 1.000000e+00, %94
  %96 = load ptr, ptr %5, align 8, !tbaa !22
  %97 = getelementptr inbounds nuw %struct.DeflickerContext, ptr %96, i32 0, i32 8
  %98 = getelementptr inbounds [4 x i32], ptr %97, i64 0, i64 0
  %99 = load i32, ptr %98, align 8, !tbaa !54
  %100 = load ptr, ptr %5, align 8, !tbaa !22
  %101 = getelementptr inbounds nuw %struct.DeflickerContext, ptr %100, i32 0, i32 7
  %102 = getelementptr inbounds [4 x i32], ptr %101, i64 0, i64 0
  %103 = load i32, ptr %102, align 8, !tbaa !54
  %104 = mul nsw i32 %99, %103
  %105 = sitofp i32 %104 to float
  %106 = fdiv nsz float %95, %105
  call void @llvm.lifetime.end.p0(i64 4, ptr %9) #13
  call void @llvm.lifetime.end.p0(i64 4, ptr %8) #13
  call void @llvm.lifetime.end.p0(i64 8, ptr %7) #13
  call void @llvm.lifetime.end.p0(i64 8, ptr %6) #13
  call void @llvm.lifetime.end.p0(i64 8, ptr %5) #13
  ret float %106
}