; Function Attrs: nofree norecurse nosync nounwind memory(readwrite, inaccessiblemem: none) uwtable
define internal float @calc_avgy8(ptr noundef readonly captures(none) %0, ptr noundef readonly captures(none) %1) #8 {
  %3 = getelementptr inbounds nuw i8, ptr %0, i64 72
  %4 = load ptr, ptr %3, align 8, !tbaa !4
  %5 = load ptr, ptr %1, align 8, !tbaa !54
  %6 = getelementptr inbounds nuw i8, ptr %4, i64 64
  %7 = load ptr, ptr %6, align 8, !tbaa !67
  %8 = getelementptr inbounds nuw i8, ptr %4, i64 24
  %9 = load i32, ptr %8, align 8, !tbaa !57
  %10 = shl nuw i32 1, %9
  %11 = sext i32 %10 to i64
  %12 = shl nsw i64 %11, 3
  tail call void @llvm.memset.p0.i64(ptr noundef nonnull align 8 dereferenceable(1) %7, i8 0, i64 %12, i1 false)
  %13 = getelementptr inbounds nuw i8, ptr %4, i64 48
  %14 = load i32, ptr %13, align 8, !tbaa !55
  %15 = icmp sgt i32 %14, 0
  br i1 %15, label %.preheader27.lr.ph, label %.preheader

.preheader27.lr.ph:                               ; preds = %2
  %16 = getelementptr inbounds nuw i8, ptr %4, i64 32
  %17 = load i32, ptr %16, align 8, !tbaa !55
  %18 = icmp sgt i32 %17, 0
  %19 = getelementptr inbounds nuw i8, ptr %1, i64 64
  %20 = load i32, ptr %19, align 8, !tbaa !55
  %21 = sext i32 %20 to i64
  br i1 %18, label %.preheader27.lr.ph.split.us, label %.preheader

.preheader27.lr.ph.split.us:                      ; preds = %.preheader27.lr.ph
  %22 = load ptr, ptr %6, align 8, !tbaa !67
  %wide.trip.count = zext nneg i32 %17 to i64
  br label %.preheader27.us

.preheader27.us:                                  ; preds = %._crit_edge.us, %.preheader27.lr.ph.split.us
  %.02430.us = phi i32 [ 0, %.preheader27.lr.ph.split.us ], [ %31, %._crit_edge.us ]
  %.02629.us = phi ptr [ %5, %.preheader27.lr.ph.split.us ], [ %30, %._crit_edge.us ]
  br label %23

23:                                               ; preds = %.preheader27.us, %23
  %indvars.iv = phi i64 [ 0, %.preheader27.us ], [ %indvars.iv.next, %23 ]
  %24 = getelementptr inbounds nuw i8, ptr %.02629.us, i64 %indvars.iv
  %25 = load i8, ptr %24, align 1, !tbaa !69
  %26 = zext i8 %25 to i64
  %27 = getelementptr inbounds nuw i64, ptr %22, i64 %26
  %28 = load i64, ptr %27, align 8, !tbaa !72
  %29 = add i64 %28, 1
  store i64 %29, ptr %27, align 8, !tbaa !72
  %indvars.iv.next = add nuw nsw i64 %indvars.iv, 1
  %exitcond.not = icmp eq i64 %indvars.iv.next, %wide.trip.count
  br i1 %exitcond.not, label %._crit_edge.us, label %23, !llvm.loop !73

._crit_edge.us:                                   ; preds = %23
  %30 = getelementptr inbounds i8, ptr %.02629.us, i64 %21
  %31 = add nuw nsw i32 %.02430.us, 1
  %exitcond36.not = icmp eq i32 %31, %14
  br i1 %exitcond36.not, label %.preheader, label %.preheader27.us, !llvm.loop !74

.preheader:                                       ; preds = %._crit_edge.us, %.preheader27.lr.ph, %2
  %32 = load i32, ptr %8, align 8, !tbaa !57
  %.not = icmp eq i32 %32, 31
  br i1 %.not, label %._crit_edge, label %.lr.ph

.lr.ph:                                           ; preds = %.preheader
  %33 = shl nuw nsw i32 1, %32
  %34 = load ptr, ptr %6, align 8, !tbaa !67
  %wide.trip.count40 = zext nneg i32 %33 to i64
  br label %35

35:                                               ; preds = %.lr.ph, %35
  %indvars.iv37 = phi i64 [ 0, %.lr.ph ], [ %indvars.iv.next38, %35 ]
  %.02531 = phi i64 [ 0, %.lr.ph ], [ %39, %35 ]
  %36 = getelementptr inbounds nuw i64, ptr %34, i64 %indvars.iv37
  %37 = load i64, ptr %36, align 8, !tbaa !72
  %38 = mul i64 %37, %indvars.iv37
  %39 = add i64 %38, %.02531
  %indvars.iv.next38 = add nuw nsw i64 %indvars.iv37, 1
  %exitcond41.not = icmp eq i64 %indvars.iv.next38, %wide.trip.count40
  br i1 %exitcond41.not, label %._crit_edge.loopexit, label %35, !llvm.loop !75

._crit_edge.loopexit:                             ; preds = %35
  %40 = sitofp i64 %39 to float
  br label %._crit_edge

._crit_edge:                                      ; preds = %._crit_edge.loopexit, %.preheader
  %.025.lcssa = phi float [ 0.000000e+00, %.preheader ], [ %40, %._crit_edge.loopexit ]
  %41 = getelementptr inbounds nuw i8, ptr %4, i64 32
  %42 = load i32, ptr %41, align 8, !tbaa !55
  %43 = mul nsw i32 %42, %14
  %44 = sitofp i32 %43 to float
  %45 = fdiv nsz float %.025.lcssa, %44
  ret float %45
}